target datalayout = "e-m:e-p270:32:32-p271:32:32-p272:64:64-i64:64-i128:128-f80:128-n8:16:32:64-S128"
target triple = "x86_64-pc-linux-gnu"

%struct.t_atoms = type { i32, ptr, ptr, ptr, ptr, i32, ptr, ptr, i8, i8, i8, i8, i8 }
%struct.t_atom = type { float, float, float, float, i16, i16, i32, i32, i32, [4 x i8] }
%"class.gmx::AtomsRemover" = type { %"class.std::vector" }
%"class.std::vector" = type { %"struct.std::_Vector_base" }
%"struct.std::_Vector_base" = type { %"struct.std::_Vector_base<char, std::allocator<char>>::_Vector_impl" }
%"struct.std::_Vector_base<char, std::allocator<char>>::_Vector_impl" = type { %"struct.std::_Vector_base<char, std::allocator<char>>::_Vector_impl_data" }
%"struct.std::_Vector_base<char, std::allocator<char>>::_Vector_impl_data" = type { ptr, ptr, ptr }

; Function Attrs: mustprogress nounwind uwtable
define linkonce_odr noundef nonnull align 1 dereferenceable(1) ptr @_ZNSt6vectorIcSaIcEEixEm(ptr noundef nonnull align 8 dereferenceable(24) %0, i64 noundef %1) #0 comdat align 2 {
  %3 = alloca ptr, align 8
  %4 = alloca i64, align 8
  store ptr %0, ptr %3, align 8, !tbaa !80
  store i64 %1, ptr %4, align 8, !tbaa !42
  %5 = load ptr, ptr %3, align 8
  %6 = getelementptr inbounds nuw %"struct.std::_Vector_base", ptr %5, i32 0, i32 0
  %7 = getelementptr inbounds nuw %"struct.std::_Vector_base<char, std::allocator<char>>::_Vector_impl_data", ptr %6, i32 0, i32 0
  %8 = load ptr, ptr %7, align 8, !tbaa !86
  %9 = load i64, ptr %4, align 8, !tbaa !42
  %10 = getelementptr inbounds nuw i8, ptr %8, i64 %9
  ret ptr %10
}

; Function Attrs: mustprogress nounwind uwtable
define void @_ZN3gmx12AtomsRemover11markResidueERK7t_atomsib(ptr noundef nonnull align 8 dereferenceable(24) %0, ptr noundef nonnull align 8 dereferenceable(72) %1, i32 noundef %2, i1 noundef zeroext %3) #0 align 2 {
  %5 = alloca ptr, align 8
  %6 = alloca ptr, align 8
  %7 = alloca i32, align 4
  %8 = alloca i8, align 1
  %9 = alloca i32, align 4
  store ptr %0, ptr %5, align 8, !tbaa !76
  store ptr %1, ptr %6, align 8, !tbaa !9
  store i32 %2, ptr %7, align 4, !tbaa !38
  %10 = zext i1 %3 to i8
  store i8 %10, ptr %8, align 1, !tbaa !70
  %11 = load ptr, ptr %5, align 8
  call void @llvm.lifetime.start.p0(i64 4, ptr %9) #13
  %12 = load ptr, ptr %6, align 8, !tbaa !9
  %13 = getelementptr inbounds nuw %struct.t_atoms, ptr %12, i32 0, i32 1
  %14 = load ptr, ptr %13, align 8, !tbaa !55
  %15 = load i32, ptr %7, align 4, !tbaa !38
  %16 = sext i32 %15 to i64
  %17 = getelementptr inbounds %struct.t_atom, ptr %14, i64 %16
  %18 = getelementptr inbounds nuw %struct.t_atom, ptr %17, i32 0, i32 7
  %19 = load i32, ptr %18, align 4, !tbaa !65
  store i32 %19, ptr %9, align 4, !tbaa !38
  br label %20

20:                                               ; preds = %37, %4
  %21 = load i32, ptr %7, align 4, !tbaa !38
  %22 = icmp sgt i32 %21, 0
  br i1 %22, label %23, label %35

23:                                               ; preds = %20
  %24 = load i32, ptr %9, align 4, !tbaa !38
  %25 = load ptr, ptr %6, align 8, !tbaa !9
  %26 = getelementptr inbounds nuw %struct.t_atoms, ptr %25, i32 0, i32 1
  %27 = load ptr, ptr %26, align 8, !tbaa !55
  %28 = load i32, ptr %7, align 4, !tbaa !38
  %29 = sub nsw i32 %28, 1
  %30 = sext i32 %29 to i64
  %31 = getelementptr inbounds %struct.t_atom, ptr %27, i64 %30
  %32 = getelementptr inbounds nuw %struct.t_atom, ptr %31, i32 0, i32 7
  %33 = load i32, ptr %32, align 4, !tbaa !65
  %34 = icmp eq i32 %24, %33
  br label %35

35:                                               ; preds = %23, %20
  %36 = phi i1 [ false, %20 ], [ %34, %23 ]
  br i1 %36, label %37, label %40

37:                                               ; preds = %35
  %38 = load i32, ptr %7, align 4, !tbaa !38
  %39 = add nsw i32 %38, -1
  store i32 %39, ptr %7, align 4, !tbaa !38
  br label %20, !llvm.loop !115

40:                                               ; preds = %35
  br label %41

41:                                               ; preds = %60, %40
  %42 = load i32, ptr %7, align 4, !tbaa !38
  %43 = load ptr, ptr %6, align 8, !tbaa !9
  %44 = getelementptr inbounds nuw %struct.t_atoms, ptr %43, i32 0, i32 0
  %45 = load i32, ptr %44, align 8, !tbaa !17
  %46 = icmp slt i32 %42, %45
  br i1 %46, label %47, label %58

47:                                               ; preds = %41
  %48 = load i32, ptr %9, align 4, !tbaa !38
  %49 = load ptr, ptr %6, align 8, !tbaa !9
  %50 = getelementptr inbounds nuw %struct.t_atoms, ptr %49, i32 0, i32 1
  %51 = load ptr, ptr %50, align 8, !tbaa !55
  %52 = load i32, ptr %7, align 4, !tbaa !38
  %53 = sext i32 %52 to i64
  %54 = getelementptr inbounds %struct.t_atom, ptr %51, i64 %53
  %55 = getelementptr inbounds nuw %struct.t_atom, ptr %54, i32 0, i32 7
  %56 = load i32, ptr %55, align 4, !tbaa !65
  %57 = icmp eq i32 %48, %56
  br label %58

58:                                               ; preds = %47, %41
  %59 = phi i1 [ false, %41 ], [ %57, %47 ]
  br i1 %59, label %60, label %71

60:                                               ; preds = %58
  %61 = load i8, ptr %8, align 1, !tbaa !70, !range !116, !noundef !117
  %62 = trunc i8 %61 to i1
  %63 = select i1 %62, i32 1, i32 0
  %64 = trunc i32 %63 to i8
  %65 = getelementptr inbounds nuw %"class.gmx::AtomsRemover", ptr %11, i32 0, i32 0
  %66 = load i32, ptr %7, align 4, !tbaa !38
  %67 = sext i32 %66 to i64
  %68 = call noundef nonnull align 1 dereferenceable(1) ptr @_ZNSt6vectorIcSaIcEEixEm(ptr noundef nonnull align 8 dereferenceable(24) %65, i64 noundef %67) #13
  store i8 %64, ptr %68, align 1, !tbaa !63
  %69 = load i32, ptr %7, align 4, !tbaa !38
  %70 = add nsw i32 %69, 1
  store i32 %70, ptr %7, align 4, !tbaa !38
  br label %41, !llvm.loop !118

71:                                               ; preds = %58
  call void @llvm.lifetime.end.p0(i64 4, ptr %9) #13
  ret void
}